; Function Attrs: mustprogress uwtable
define hidden noundef nonnull align 8 dereferenceable(8) ptr @_ZNK3euf12arith_plugin7displayERSo(ptr noundef nonnull align 8 dereferenceable(904) %this, ptr noundef nonnull returned align 8 dereferenceable(8) %out) unnamed_addr #3 align 2 {
entry:
  %call = tail call noundef nonnull align 8 dereferenceable(8) ptr @_ZStlsISt11char_traitsIcEERSt13basic_ostreamIcT_ES5_PKc(ptr noundef nonnull align 8 dereferenceable(8) %out, ptr noundef nonnull @.str.3)
  %m_add = getelementptr inbounds i8, ptr %this, i64 40
  %call2 = tail call noundef nonnull align 8 dereferenceable(8) ptr @_ZNK3euf9ac_plugin7displayERSo(ptr noundef nonnull align 8 dereferenceable(432) %m_add, ptr noundef nonnull align 8 dereferenceable(8) %out)
  %call3 = tail call noundef nonnull align 8 dereferenceable(8) ptr @_ZStlsISt11char_traitsIcEERSt13basic_ostreamIcT_ES5_PKc(ptr noundef nonnull align 8 dereferenceable(8) %out, ptr noundef nonnull @.str.4)
  %m_mul = getelementptr inbounds i8, ptr %this, i64 472
  %call4 = tail call noundef nonnull align 8 dereferenceable(8) ptr @_ZNK3euf9ac_plugin7displayERSo(ptr noundef nonnull align 8 dereferenceable(432) %m_mul, ptr noundef nonnull align 8 dereferenceable(8) %out)
  ret ptr %out
}